; Function Attrs: mustprogress uwtable
define void @_ZN6google8protobuf8internal14ArenaStringPtr14ClearToDefaultERKNS1_10LazyStringEPNS0_5ArenaE(ptr noundef nonnull readonly align 8 captures(none) dereferenceable(8) %this, ptr noundef nonnull align 8 dereferenceable(40) %default_value, ptr noundef readnone captures(none) %arena) local_unnamed_addr #3 align 2 personality ptr @__gxx_personality_v0 {
entry:
  %0 = load ptr, ptr %this, align 8
  %1 = ptrtoint ptr %0 to i64
  %and.i.i = and i64 %1, 3
  %cmp.i.i = icmp eq i64 %and.i.i, 0
  br i1 %cmp.i.i, label %if.end, label %if.else

if.else:                                          ; preds = %entry
  %and.i.i1 = and i64 %1, -4
  %2 = inttoptr i64 %and.i.i1 to ptr
  %inited_.i = getelementptr inbounds nuw i8, ptr %default_value, i64 32
  %3 = load atomic i64, ptr %inited_.i acquire, align 8
  %atomic-temp.i.0.i.i = inttoptr i64 %3 to ptr
  %cmp.i = icmp eq i64 %3, 0
  br i1 %cmp.i, label %if.then.i, label %_ZNK6google8protobuf8internal10LazyString3getB5cxx11Ev.exit

if.then.i:                                        ; preds = %if.else
  %call2.i = tail call noundef nonnull align 8 dereferenceable(32) ptr @_ZNK6google8protobuf8internal10LazyString4InitB5cxx11Ev(ptr noundef nonnull align 8 dereferenceable(40) %default_value)
  br label %_ZNK6google8protobuf8internal10LazyString3getB5cxx11Ev.exit

_ZNK6google8protobuf8internal10LazyString3getB5cxx11Ev.exit: ; preds = %if.else, %if.then.i
  %retval.0.i = phi ptr [ %call2.i, %if.then.i ], [ %atomic-temp.i.0.i.i, %if.else ]
  %call4 = tail call noundef nonnull align 8 dereferenceable(32) ptr @_ZNSt7__cxx1112basic_stringIcSt11char_traitsIcESaIcEE6assignERKS4_(ptr noundef nonnull align 8 dereferenceable(32) %2, ptr noundef nonnull align 8 dereferenceable(32) %retval.0.i)
  br label %if.end

if.end:                                           ; preds = %entry, %_ZNK6google8protobuf8internal10LazyString3getB5cxx11Ev.exit
  ret void
}